; Function Attrs: mustprogress uwtable
define void @_ZN5boost6locale8ios_infoC2Ev(ptr noundef nonnull align 8 dereferenceable(56) %0) unnamed_addr #0 align 2 personality ptr @__gxx_personality_v0 {
  store i64 0, ptr %0, align 8, !tbaa !3
  %2 = getelementptr inbounds nuw i8, ptr %0, i64 8
  store i32 0, ptr %2, align 8, !tbaa !19
  %3 = getelementptr inbounds nuw i8, ptr %0, i64 16
  tail call void @_ZN5boost6locale9time_zone6globalB5cxx11Ev(ptr dead_on_unwind nonnull writable sret(%"class.std::__cxx11::basic_string") align 8 %3)
  %4 = getelementptr inbounds nuw i8, ptr %0, i64 48
  store ptr null, ptr %4, align 8, !tbaa !20
  ret void
}